target datalayout = "e-m:e-p270:32:32-p271:32:32-p272:64:64-i64:64-i128:128-f80:128-n8:16:32:64-S128"
target triple = "x86_64-pc-linux-gnu"

%"class.cvc5::internal::TypeNode" = type { ptr }

; Function Attrs: mustprogress uwtable
define linkonce_odr hidden void @_ZN4cvc58internal4expr9NodeValue3decEv(ptr noundef nonnull align 8 dereferenceable(24) %0) #5 comdat align 2 {
  %2 = alloca ptr, align 8
  store ptr %0, ptr %2, align 8, !tbaa !132
  %3 = load ptr, ptr %2, align 8
  %4 = load i64, ptr %3, align 8
  %5 = lshr i64 %4, 40
  %6 = and i64 %5, 1048575
  %7 = trunc i64 %6 to i32
  %8 = icmp ult i32 %7, 1048575
  %9 = zext i1 %8 to i64
  %10 = call i64 @llvm.expect.i64(i64 %9, i64 1)
  %11 = icmp ne i64 %10, 0
  br i1 %11, label %12, label %34

12:                                               ; preds = %1
  %13 = load i64, ptr %3, align 8
  %14 = lshr i64 %13, 40
  %15 = and i64 %14, 1048575
  %16 = trunc i64 %15 to i32
  %17 = add i32 %16, -1
  %18 = zext i32 %17 to i64
  %19 = load i64, ptr %3, align 8
  %20 = and i64 %18, 1048575
  %21 = shl i64 %20, 40
  %22 = and i64 %19, -1152920405095219201
  %23 = or i64 %22, %21
  store i64 %23, ptr %3, align 8
  %24 = load i64, ptr %3, align 8
  %25 = lshr i64 %24, 40
  %26 = and i64 %25, 1048575
  %27 = trunc i64 %26 to i32
  %28 = icmp eq i32 %27, 0
  %29 = zext i1 %28 to i64
  %30 = call i64 @llvm.expect.i64(i64 %29, i64 0)
  %31 = icmp ne i64 %30, 0
  br i1 %31, label %32, label %33

32:                                               ; preds = %12
  call void @_ZN4cvc58internal4expr9NodeValue15markForDeletionEv(ptr noundef nonnull align 8 dereferenceable(24) %3)
  br label %33

33:                                               ; preds = %32, %12
  br label %34

34:                                               ; preds = %33, %1
  ret void
}

; Function Attrs: inlinehint mustprogress nounwind uwtable
define linkonce_odr hidden void @_ZN4cvc58internal8TypeNodeD2Ev(ptr noundef nonnull align 8 dereferenceable(8) %0) unnamed_addr #8 comdat align 2 personality ptr @__gxx_personality_v0 {
  %2 = alloca ptr, align 8
  store ptr %0, ptr %2, align 8, !tbaa !12
  %3 = load ptr, ptr %2, align 8
  %4 = getelementptr inbounds nuw %"class.cvc5::internal::TypeNode", ptr %3, i32 0, i32 0
  %5 = load ptr, ptr %4, align 8, !tbaa !50
  invoke void @_ZN4cvc58internal4expr9NodeValue3decEv(ptr noundef nonnull align 8 dereferenceable(24) %5)
          to label %6 unwind label %7

6:                                                ; preds = %1
  ret void

7:                                                ; preds = %1
  %8 = landingpad { ptr, i32 }
          catch ptr null
  %9 = extractvalue { ptr, i32 } %8, 0
  call void @__clang_call_terminate(ptr %9) #18
  unreachable
}

; Function Attrs: mustprogress nounwind uwtable
define linkonce_odr hidden noundef zeroext i1 @_ZNK4cvc58internal8TypeNodeeqERKS1_(ptr noundef nonnull align 8 dereferenceable(8) %0, ptr noundef nonnull align 8 dereferenceable(8) %1) #4 comdat align 2 {
  %3 = alloca ptr, align 8
  %4 = alloca ptr, align 8
  store ptr %0, ptr %3, align 8, !tbaa !12
  store ptr %1, ptr %4, align 8, !tbaa !12
  %5 = load ptr, ptr %3, align 8
  %6 = getelementptr inbounds nuw %"class.cvc5::internal::TypeNode", ptr %5, i32 0, i32 0
  %7 = load ptr, ptr %6, align 8, !tbaa !50
  %8 = load ptr, ptr %4, align 8, !tbaa !12
  %9 = getelementptr inbounds nuw %"class.cvc5::internal::TypeNode", ptr %8, i32 0, i32 0
  %10 = load ptr, ptr %9, align 8, !tbaa !50
  %11 = icmp eq ptr %7, %10
  ret i1 %11
}

; Function Attrs: mustprogress uwtable
define hidden noundef i32 @_ZN4cvc58internal6theory9datatypes19SygusSimpleSymBreak21getFirstArgOccurrenceERKNS0_16DTypeConstructorENS0_8TypeNodeE(ptr noundef nonnull align 8 dereferenceable(8) %0, ptr noundef nonnull align 8 dereferenceable(264) %1, ptr noundef %2) #5 align 2 personality ptr @__gxx_personality_v0 {
  %4 = alloca i32, align 4
  %5 = alloca ptr, align 8
  %6 = alloca ptr, align 8
  %7 = alloca ptr, align 8
  %8 = alloca i32, align 4
  %9 = alloca i32, align 4
  %10 = alloca i32, align 4
  %11 = alloca %"class.cvc5::internal::TypeNode", align 8
  %12 = alloca ptr, align 8
  %13 = alloca i32, align 4
  store ptr %0, ptr %5, align 8, !tbaa !3
  store ptr %1, ptr %6, align 8, !tbaa !87
  store ptr %2, ptr %7, align 8, !tbaa !12
  call void @llvm.lifetime.start.p0(i64 4, ptr %8) #3
  store i32 0, ptr %8, align 4, !tbaa !16
  call void @llvm.lifetime.start.p0(i64 4, ptr %9) #3
  %14 = load ptr, ptr %6, align 8, !tbaa !87
  %15 = call noundef i64 @_ZNK4cvc58internal16DTypeConstructor10getNumArgsEv(ptr noundef nonnull align 8 dereferenceable(264) %14)
  %16 = trunc i64 %15 to i32
  store i32 %16, ptr %9, align 4, !tbaa !16
  br label %17

17:                                               ; preds = %35, %3
  %18 = load i32, ptr %8, align 4, !tbaa !16
  %19 = load i32, ptr %9, align 4, !tbaa !16
  %20 = icmp ult i32 %18, %19
  br i1 %20, label %22, label %21

21:                                               ; preds = %17
  store i32 2, ptr %10, align 4
  br label %38

22:                                               ; preds = %17
  call void @llvm.lifetime.start.p0(i64 8, ptr %11) #3
  %23 = load ptr, ptr %6, align 8, !tbaa !87
  %24 = load i32, ptr %8, align 4, !tbaa !16
  %25 = zext i32 %24 to i64
  call void @_ZNK4cvc58internal16DTypeConstructor10getArgTypeEm(ptr dead_on_unwind writable sret(%"class.cvc5::internal::TypeNode") align 8 %11, ptr noundef nonnull align 8 dereferenceable(264) %23, i64 noundef %25)
  %26 = invoke noundef zeroext i1 @_ZNK4cvc58internal8TypeNodeeqERKS1_(ptr noundef nonnull align 8 dereferenceable(8) %11, ptr noundef nonnull align 8 dereferenceable(8) %2)
          to label %27 unwind label %30

27:                                               ; preds = %22
  call void @_ZN4cvc58internal8TypeNodeD2Ev(ptr noundef nonnull align 8 dereferenceable(8) %11) #3
  call void @llvm.lifetime.end.p0(i64 8, ptr %11) #3
  br i1 %26, label %28, label %34

28:                                               ; preds = %27
  %29 = load i32, ptr %8, align 4, !tbaa !16
  store i32 %29, ptr %4, align 4
  store i32 1, ptr %10, align 4
  br label %38

30:                                               ; preds = %22
  %31 = landingpad { ptr, i32 }
          cleanup
  %32 = extractvalue { ptr, i32 } %31, 0
  store ptr %32, ptr %12, align 8
  %33 = extractvalue { ptr, i32 } %31, 1
  store i32 %33, ptr %13, align 4
  call void @_ZN4cvc58internal8TypeNodeD2Ev(ptr noundef nonnull align 8 dereferenceable(8) %11) #3
  call void @llvm.lifetime.end.p0(i64 8, ptr %11) #3
  call void @llvm.lifetime.end.p0(i64 4, ptr %9) #3
  call void @llvm.lifetime.end.p0(i64 4, ptr %8) #3
  br label %43

34:                                               ; preds = %27
  br label %35

35:                                               ; preds = %34
  %36 = load i32, ptr %8, align 4, !tbaa !16
  %37 = add i32 %36, 1
  store i32 %37, ptr %8, align 4, !tbaa !16
  br label %17, !llvm.loop !89

38:                                               ; preds = %28, %21
  call void @llvm.lifetime.end.p0(i64 4, ptr %9) #3
  call void @llvm.lifetime.end.p0(i64 4, ptr %8) #3
  %39 = load i32, ptr %10, align 4
  switch i32 %39, label %48 [
    i32 2, label %40
    i32 1, label %41
  ]

40:                                               ; preds = %38
  store i32 -1, ptr %4, align 4
  br label %41

41:                                               ; preds = %40, %38
  %42 = load i32, ptr %4, align 4
  ret i32 %42

43:                                               ; preds = %30
  %44 = load ptr, ptr %12, align 8
  %45 = load i32, ptr %13, align 4
  %46 = insertvalue { ptr, i32 } poison, ptr %44, 0
  %47 = insertvalue { ptr, i32 } %46, i32 %45, 1
  resume { ptr, i32 } %47

48:                                               ; preds = %38
  unreachable
}