; Function Attrs: mustprogress uwtable
define hidden noundef i32 @_ZN4cvc58internal6theory9datatypes19SygusSimpleSymBreak21getFirstArgOccurrenceERKNS0_16DTypeConstructorENS0_8TypeNodeE(ptr noundef nonnull readnone align 8 captures(none) dereferenceable(8) %0, ptr noundef nonnull align 8 dereferenceable(264) %1, ptr noundef readonly captures(none) %2) local_unnamed_addr #4 align 2 personality ptr @__gxx_personality_v0 {
  %4 = alloca %"class.cvc5::internal::TypeNode", align 8
  %5 = tail call noundef i64 @_ZNK4cvc58internal16DTypeConstructor10getNumArgsEv(ptr noundef nonnull align 8 dereferenceable(264) %1)
  %6 = and i64 %5, 4294967295
  %.not10.not = icmp eq i64 %6, 0
  br i1 %.not10.not, label %_ZN4cvc58internal8TypeNodeD2Ev.exit._crit_edge, label %.lr.ph.preheader

.lr.ph.preheader:                                 ; preds = %3
  %wide.trip.count = and i64 %5, 4294967295
  br label %.lr.ph

.lr.ph:                                           ; preds = %.lr.ph.preheader, %22
  %indvars.iv = phi i64 [ 0, %.lr.ph.preheader ], [ %indvars.iv.next, %22 ]
  call void @llvm.lifetime.start.p0(i64 8, ptr nonnull %4) #20
  call void @_ZNK4cvc58internal16DTypeConstructor10getArgTypeEm(ptr dead_on_unwind nonnull writable sret(%"class.cvc5::internal::TypeNode") align 8 %4, ptr noundef nonnull align 8 dereferenceable(264) %1, i64 noundef %indvars.iv)
  %7 = load ptr, ptr %4, align 8, !tbaa !9
  %8 = load ptr, ptr %2, align 8, !tbaa !9
  %9 = icmp eq ptr %7, %8
  %10 = load i64, ptr %7, align 8
  %11 = and i64 %10, 1152920405095219200
  %.not.i.i = icmp eq i64 %11, 1152920405095219200
  br i1 %.not.i.i, label %_ZN4cvc58internal8TypeNodeD2Ev.exit, label %12, !prof !13

12:                                               ; preds = %.lr.ph
  %13 = add i64 %10, 1152920405095219200
  %14 = and i64 %13, 1152920405095219200
  %15 = and i64 %10, -1152920405095219201
  %16 = or disjoint i64 %14, %15
  store i64 %16, ptr %7, align 8
  %17 = icmp eq i64 %14, 0
  br i1 %17, label %18, label %_ZN4cvc58internal8TypeNodeD2Ev.exit, !prof !13

18:                                               ; preds = %12
  invoke void @_ZN4cvc58internal4expr9NodeValue15markForDeletionEv(ptr noundef nonnull align 8 dereferenceable(24) %7)
          to label %_ZN4cvc58internal8TypeNodeD2Ev.exit unwind label %19

19:                                               ; preds = %18
  %20 = landingpad { ptr, i32 }
          catch ptr null
  %21 = extractvalue { ptr, i32 } %20, 0
  call void @__clang_call_terminate(ptr %21) #19
  unreachable

_ZN4cvc58internal8TypeNodeD2Ev.exit:              ; preds = %.lr.ph, %12, %18
  call void @llvm.lifetime.end.p0(i64 8, ptr nonnull %4) #20
  br i1 %9, label %_ZN4cvc58internal8TypeNodeD2Ev.exit._crit_edge.loopexit.split.loop.exit, label %22

22:                                               ; preds = %_ZN4cvc58internal8TypeNodeD2Ev.exit
  %indvars.iv.next = add nuw nsw i64 %indvars.iv, 1
  %exitcond.not = icmp eq i64 %indvars.iv.next, %wide.trip.count
  br i1 %exitcond.not, label %_ZN4cvc58internal8TypeNodeD2Ev.exit._crit_edge, label %.lr.ph, !llvm.loop !14

_ZN4cvc58internal8TypeNodeD2Ev.exit._crit_edge.loopexit.split.loop.exit: ; preds = %_ZN4cvc58internal8TypeNodeD2Ev.exit
  %23 = trunc nuw i64 %indvars.iv to i32
  br label %_ZN4cvc58internal8TypeNodeD2Ev.exit._crit_edge

_ZN4cvc58internal8TypeNodeD2Ev.exit._crit_edge:   ; preds = %22, %_ZN4cvc58internal8TypeNodeD2Ev.exit._crit_edge.loopexit.split.loop.exit, %3
  %spec.select = phi i32 [ -1, %3 ], [ %23, %_ZN4cvc58internal8TypeNodeD2Ev.exit._crit_edge.loopexit.split.loop.exit ], [ -1, %22 ]
  ret i32 %spec.select
}